target datalayout = "e-m:e-p270:32:32-p271:32:32-p272:64:64-i64:64-i128:128-f80:128-n8:16:32:64-S128"
target triple = "x86_64-pc-linux-gnu"

@_ZN13CompileBroker17_c2_compile_queueE = hidden global ptr null, align 8
@_ZN13CompileBroker17_c1_compile_queueE = hidden global ptr null, align 8

; Function Attrs: mustprogress nounwind uwtable
define linkonce_odr hidden noundef zeroext i1 @_Z13is_c1_compilei(i32 noundef %0) #1 comdat {
  %2 = alloca i32, align 4
  store i32 %0, ptr %2, align 4
  %3 = load i32, ptr %2, align 4
  %4 = icmp sgt i32 %3, 0
  br i1 %4, label %5, label %8

5:                                                ; preds = %1
  %6 = load i32, ptr %2, align 4
  %7 = icmp slt i32 %6, 4
  br label %8

8:                                                ; preds = %5, %1
  %9 = phi i1 [ false, %1 ], [ %7, %5 ]
  ret i1 %9
}

; Function Attrs: mustprogress nounwind uwtable
define linkonce_odr hidden noundef zeroext i1 @_Z13is_c2_compilei(i32 noundef %0) #1 comdat {
  %2 = alloca i32, align 4
  store i32 %0, ptr %2, align 4
  %3 = load i32, ptr %2, align 4
  %4 = icmp eq i32 %3, 4
  ret i1 %4
}

; Function Attrs: mustprogress nounwind uwtable
define hidden noundef ptr @_ZN13CompileBroker13compile_queueEi(i32 noundef %0) #1 align 2 {
  %2 = alloca ptr, align 8
  %3 = alloca i32, align 4
  store i32 %0, ptr %3, align 4
  %4 = load i32, ptr %3, align 4
  %5 = call noundef zeroext i1 @_Z13is_c2_compilei(i32 noundef %4)
  br i1 %5, label %6, label %8

6:                                                ; preds = %1
  %7 = load ptr, ptr @_ZN13CompileBroker17_c2_compile_queueE, align 8
  store ptr %7, ptr %2, align 8
  br label %14

8:                                                ; preds = %1
  %9 = load i32, ptr %3, align 4
  %10 = call noundef zeroext i1 @_Z13is_c1_compilei(i32 noundef %9)
  br i1 %10, label %11, label %13

11:                                               ; preds = %8
  %12 = load ptr, ptr @_ZN13CompileBroker17_c1_compile_queueE, align 8
  store ptr %12, ptr %2, align 8
  br label %14

13:                                               ; preds = %8
  store ptr null, ptr %2, align 8
  br label %14

14:                                               ; preds = %13, %11, %6
  %15 = load ptr, ptr %2, align 8
  ret ptr %15
}