; Function Attrs: mustprogress nofree norecurse nosync nounwind willreturn memory(read, argmem: none, inaccessiblemem: none) uwtable
define hidden noundef ptr @_ZN13CompileBroker13compile_queueEi(i32 noundef %0) local_unnamed_addr #5 align 2 {
  %2 = icmp eq i32 %0, 4
  br i1 %2, label %3, label %5

3:                                                ; preds = %1
  %4 = load ptr, ptr @_ZN13CompileBroker17_c2_compile_queueE, align 8
  br label %9

5:                                                ; preds = %1
  %6 = add i32 %0, -1
  %7 = icmp ult i32 %6, 3
  %8 = load ptr, ptr @_ZN13CompileBroker17_c1_compile_queueE, align 8
  %spec.select = select i1 %7, ptr %8, ptr null
  br label %9

9:                                                ; preds = %5, %3
  %.0 = phi ptr [ %4, %3 ], [ %spec.select, %5 ]
  ret ptr %.0
}